(dp0
S'vendorid'
p1
S'000000000000a1ba'
p2
sS'product'
p3
S'00000608'
p4
sS'name'
p5
S'WB-FMC-ADC-Core '
p6
sS'devname'
p7
S'WB-FMC-ADC-CORE'
p8
sS'regs'
p9
(dp10
S'CTL_RANGE'
p11
(dp12
S'access'
p13
S' READ_WRITE'
p14
sS'bit_position'
p15
I11
sS'address'
p16
I0
sS'description'
p17
S'ADC voltage range:\\n0: +/-5V\\n1: +/-10V (default)'
p18
sS'size'
p19
I1
ssS'CTL_DBL_RATE'
p20
(dp21
g13
S' READ_WRITE'
p22
sg15
I15
sg16
I0
sg17
S'Sampling of adc (it is recomended to set to 1 only with adc_os=0, see datasheet)\\n1: Sampling at 200kS/s\\n0: Sampling at 400kS/s'
p23
sg19
I1
ssS'CTL_ADQ_M'
p24
(dp25
g13
S' READ_WRITE'
p26
sg15
I9
sg16
I0
sg17
S'0: Continious adquisition\\n1: On trigger\\n2: TimeStamp\\n3: no defined'
p27
sg19
I2
ssS'CTL_TRIGID'
p28
(dp29
g13
S' READ_WRITE'
p30
sg15
I0
sg16
I0
sg17
S'Is the trigger ID that starts the adquisition.'
p31
sg19
I8
ssS'CTL_FIFO_OF'
p32
(dp33
g13
S' READ_ONLY'
p34
sg15
I20
sg16
I0
sg17
S'ADC FIFO has and overflow'
p35
sg19
I1
ssS'CTL_TRIG_ERR'
p36
(dp37
g13
S' READ_ONLY'
p38
sg15
I21
sg16
I0
sg17
S'Trigger tried to send but adc was not ready.'
p39
sg19
I1
ssS'CTL_ADC_OS'
p40
(dp41
g13
S' READ_WRITE'
p42
sg15
I12
sg16
I0
sg17
S'0: No oversampling\\n1: 2\\n2: 4\\n3: 8\\n4: 16\\n5: 32\\n6: 64\\n7: Invalid'
p43
sg19
I3
ssS'CTL_ADC_FSM'
p44
(dp45
g13
S' READ_ONLY'
p46
sg15
I17
sg16
I0
sg17
S'States:\\n0: ADC_RST\\n1&5: IDLE\\n2&6: inConversion\\n3&7: reading\\n8: illegal'
p47
sg19
I3
ssS'CTL_RIC'
p48
(dp49
g13
S' READ_WRITE'
p50
sg15
I16
sg16
I0
sg17
S"when '1' it allows the possibility to read while conversion is running."
p51
sg19
I1
ssS'ID_CH4_ID'
p52
(dp53
g13
S' READ_WRITE'
p54
sg15
I24
sg16
I10
sg17
S'ID used to send the data adquiered on Channel 4. If it is 0 no data is generated.'
p55
sg19
I8
ssS'SAMPLES_CNT'
p56
(dp57
g13
S' READ_ONLY'
p58
sg15
I0
sg16
I9
sg17
S'Counts the number of samples.\\n It is reset on START and then counts the number of pre-trigger + post-trigger samples'
p59
sg19
I32
ssS'CTL_RST'
p60
(dp61
g13
S' READ_WRITE'
p62
sg15
I8
sg16
I0
sg17
S'When this bit is set to 1 is done a Reset ADC and flags'
p63
sg19
I1
ssS'ADC_CH8'
p64
(dp65
g13
S' READ_ONLY'
p66
sg15
I0
sg16
I8
sg17
S'Reading of channel 8 of 18bit ADC AD7806'
p67
sg19
I32
ssS'ID_CH3_ID'
p68
(dp69
g13
S' READ_WRITE'
p70
sg15
I16
sg16
I10
sg17
S'ID used to send the data adquiered on Channel 3. If it is 0 no data is generated.'
p71
sg19
I8
ssS'ADC_CH3'
p72
(dp73
g13
S' READ_ONLY'
p74
sg15
I0
sg16
I3
sg17
S'Reading of channel 3 of 18bit ADC AD7806'
p75
sg19
I32
ssS'ADC_CH2'
p76
(dp77
g13
S' READ_ONLY'
p78
sg15
I0
sg16
I2
sg17
S'Reading of channel 2 of 18bit ADC AD7806'
p79
sg19
I32
ssS'ADC_CH1'
p80
(dp81
g13
S' READ_ONLY'
p82
sg15
I0
sg16
I1
sg17
S'Reading of channel 1 of 18bit ADC AD7806'
p83
sg19
I32
ssS'ADC_CH7'
p84
(dp85
g13
S' READ_ONLY'
p86
sg15
I0
sg16
I7
sg17
S'Reading of channel 7 of 18bit ADC AD7806'
p87
sg19
I32
ssS'ADC_CH6'
p88
(dp89
g13
S' READ_ONLY'
p90
sg15
I0
sg16
I6
sg17
S'Reading of channel 6 of 18bit ADC AD7806'
p91
sg19
I32
ssS'ADC_CH5'
p92
(dp93
g13
S' READ_ONLY'
p94
sg15
I0
sg16
I5
sg17
S'Reading of channel 5 of 18bit ADC AD7806'
p95
sg19
I32
ssS'ADC_CH4'
p96
(dp97
g13
S' READ_ONLY'
p98
sg15
I0
sg16
I4
sg17
S'Reading of channel 4 of 18bit ADC AD7806'
p99
sg19
I32
ssS'ID_CH2_ID'
p100
(dp101
g13
S' READ_WRITE'
p102
sg15
I8
sg16
I10
sg17
S'ID used to send the data adquiered on Channel 2. If it is 0 no data is generated.'
p103
sg19
I8
ssS'ID_CH1_ID'
p104
(dp105
g13
S' READ_WRITE'
p106
sg15
I0
sg16
I10
sg17
S'ID used to send the data adquiered on Channel 1. If it is 0 no data is generated.'
p107
sg19
I8
sssS'description'
p108
S'Wishbone slave for FMC ADC 18bits 400kS/s core'
p109
s.