(dp0
S'vendorid'
p1
S'000000000000a1ba'
p2
sS'product'
p3
S'b379b5a4'
p4
sS'name'
p5
S'WB-HRMY-AVERAGE '
p6
sS'devname'
p7
S'WB-HRMY-AVERAGE'
p8
sS'regs'
p9
(dp10
S'AVG_CTL_OOF'
p11
(dp12
S'access'
p13
S' READ_ONLY'
p14
sS'bit_position'
p15
I8
sS'address'
p16
I0
sS'description'
p17
S'This bit indicates that acoumulator has a bigger value than the output send.'
p18
sS'size'
p19
I1
ssS'AVG_CTL_AOF'
p20
(dp21
g13
S' READ_ONLY'
p22
sg15
I7
sg16
I0
sg17
S'This bit indicates that FIFO is full and it is ready to send output data.'
p23
sg19
I1
ssS'ID_CFG_ID_IP'
p24
(dp25
g13
S' READ_WRITE'
p26
sg15
I0
sg16
I1
sg17
S'This is the ID data that will be added at the acomulator. If it is set to 0 no data is added.'
p27
sg19
I8
ssS'ACC_H_H'
p28
(dp29
g13
S' READ_ONLY'
p30
sg15
I0
sg16
I2
sg17
S'Value of accomulator internal register, high part.'
p31
sg19
I32
ssS'ID_CFG_ID_IN'
p32
(dp33
g13
S' READ_WRITE'
p34
sg15
I8
sg16
I1
sg17
S'This is the ID data that will be substracted at the acomulator. If it is set to 0 no data is sustracted.'
p35
sg19
I8
ssS'ACC_L_L'
p36
(dp37
g13
S' READ_ONLY'
p38
sg15
I0
sg16
I3
sg17
S'Value of accomulator internal register, low part.'
p39
sg19
I32
ssS'AVG_CTL_PRE_DIV'
p40
(dp41
g13
S' READ_WRITE'
p42
sg15
I0
sg16
I0
sg17
S'This bit indicates the number of bits that output is shifted respect to acomulator register.'
p43
sg19
I5
ssS'ID_CFG_ID_OUT'
p44
(dp45
g13
S' READ_WRITE'
p46
sg15
I16
sg16
I1
sg17
S'This is the ID of the output data generated the Timestamp of Output is the timestamp of the last input. If it is set to 0 no data is generated.'
p47
sg19
I8
ssS'AVG_CTL_ENA'
p48
(dp49
g13
S' READ_WRITE'
p50
sg15
I5
sg16
I0
sg17
S'These bits indicates, when output data will be generated.\\n 00: Data is send for each ID_IP or ID_IN is received.\\n 01: Data is send after receive a positive input. \\n 10: Data is send after receive a negative input. \\n 11: Data is send after receive both positive and negative inputs.'
p51
sg19
I2
ssS'AVG_CTL_WB_RST'
p52
(dp53
g13
S' WRITE_ONLY'
p54
sg15
I9
sg16
I0
sg17
S'Resets the acomulator registers to 0 and clear the flags Acumulator overflow and Output overflow'
p55
sg19
I1
sssS'description'
p56
S'This block is though to calculate the dynamic mean of data in 32-bit 2-Complement format.'
p57
s.