(dp0
S'vendorid'
p1
S'000000000000a1ba'
p2
sS'product'
p3
S'0000f609'
p4
sS'name'
p5
S'WB-HRMY-MEMORY '
p6
sS'devname'
p7
S'WB-HRMY-MEMORY'
p8
sS'regs'
p9
(dp10
S'CTL_RST'
p11
(dp12
S'access'
p13
S' WRITE_ONLY'
p14
sS'bit_position'
p15
I4
sS'address'
p16
I0
sS'description'
p17
S'This bit produces a reset of error flags and memory.'
p18
sS'size'
p19
I1
ssS'CTL_IDMASK'
p20
(dp21
g13
S' READ_WRITE'
p22
sg15
I24
sg16
I0
sg17
S'Mask of ID, only the bits set at 1 will be checked to identify the data to save. DATAID & IDMASK == ID & IDMASK'
p23
sg19
I8
ssS'V_T_STAMP'
p24
(dp25
g13
S' READ_ONLY'
p26
sg15
I8
sg16
I2
sg17
S"24-bit length register with the Data's Time Stamp"
p27
sg19
I24
ssS'CTL_ID'
p28
(dp29
g13
S' READ_WRITE'
p30
sg15
I16
sg16
I0
sg17
S'ID of the Data to save once trigger is received. To check if data has to be saved only set bits on IDMASK are checked.'
p31
sg19
I8
ssS'CTL_MOF'
p32
(dp33
g13
S' READ_ONLY'
p34
sg15
I2
sg16
I0
sg17
S'This bits indicates that a memory overflow is produced and some data can be lost.'
p35
sg19
I1
ssS'CTL_TRIGID'
p36
(dp37
g13
S' READ_WRITE'
p38
sg15
I8
sg16
I0
sg17
S'When this Data ID is received Trigger is generated.'
p39
sg19
I8
ssS'CTL_ONTRIGGER'
p40
(dp41
g13
S' READ_WRITE'
p42
sg15
I1
sg16
I0
sg17
S'This bit indicates that only 1 data for ID is saved for trigger (1) or that is saved all the data after the trigger(0).'
p43
sg19
I1
ssS'V_DATA'
p44
(dp45
g13
S' READ_ONLY'
p46
sg15
I0
sg16
I3
sg17
S'Data saved in the memory. Once it has been red the TS ID and Data are updated with the values of next avaiable data. This data is only valid when nDATA is different than 0.'
p47
sg19
I32
ssS'CTL_ROF'
p48
(dp49
g13
S' READ_ONLY'
p50
sg15
I3
sg16
I0
sg17
S'This bits indicates that a memory was red without valid data. So some of the data red could be not valid. This can be caused because readings are to fast or because there is no data in the buffer'
p51
sg19
I1
ssS'CTL_SAVE'
p52
(dp53
g13
S' READ_WRITE'
p54
sg15
I0
sg16
I0
sg17
S'Bit that indicates if the data received is saved(1) in the memory or not(0).'
p55
sg19
I1
ssS'LEN_MAXDATA'
p56
(dp57
g13
S' READ_ONLY'
p58
sg15
I16
sg16
I1
sg17
S'Maximum number of data that can be stored in the memory.'
p59
sg19
I16
ssS'V_ID'
p60
(dp61
g13
S' READ_ONLY'
p62
sg15
I0
sg16
I2
sg17
S'8-bit length register with the data ID.'
p63
sg19
I8
ssS'LEN_NDATA'
p64
(dp65
g13
S' READ_ONLY'
p66
sg15
I0
sg16
I1
sg17
S'numeber of data actually saved in the memory.'
p67
sg19
I16
sssS'description'
p68
S'Ram Memory to save and donwload data from fast BUS. It implements a circular buffer that can be started/stopped from fast or slow bus'
p69
s.